target datalayout = "e-m:e-p270:32:32-p271:32:32-p272:64:64-i64:64-i128:128-f80:128-n8:16:32:64-S128"
target triple = "x86_64-pc-linux-gnu"

%struct.png_struct_def = type { [1 x %struct.__jmp_buf_tag], ptr, ptr, i64, ptr, ptr, ptr, ptr, ptr, ptr, ptr, ptr, i8, i8, i32, i32, i32, i32, %struct.z_stream_s, i32, i32, i32, i32, i64, i32, i32, i32, ptr, ptr, i64, i32, i32, ptr, i16, i32, i16, i8, i8, i8, i8, i8, i8, i8, i8, i8, i8, i8, i8, i8, i8, i16, i8, i32, %struct.png_color_16_struct, %struct.png_color_16_struct, i32, i32, ptr, ptr, ptr, ptr, ptr, ptr, %struct.png_color_8_struct, %struct.png_color_8_struct, ptr, %struct.png_color_16_struct, ptr, ptr, ptr, ptr, ptr, ptr, ptr, ptr, ptr, i32, i32, i64, i64, i64, i64, i32, i32, ptr, ptr, [29 x i8], i32, ptr, ptr, i32, i32, ptr, i8, i8, i16, i16, ptr, i32, i8, ptr, ptr, ptr, ptr, ptr, ptr, ptr, i8, i32, i32, i32, i64, %struct.png_unknown_chunk_t, i64, ptr, i64, i32, i32, ptr, [4 x ptr], %struct.png_colorspace }
%struct.__jmp_buf_tag = type { [8 x i64], i32, %struct.__sigset_t }
%struct.__sigset_t = type { [16 x i64] }
%struct.z_stream_s = type { ptr, i32, i64, ptr, i32, i64, ptr, ptr, ptr, ptr, ptr, i32, i64, i64 }
%struct.png_color_8_struct = type { i8, i8, i8, i8, i8 }
%struct.png_color_16_struct = type { i8, i16, i16, i16, i16 }
%struct.png_unknown_chunk_t = type { [5 x i8], ptr, i64, i8 }
%struct.png_colorspace = type { i32, %struct.png_xy, %struct.png_XYZ, i16, i16 }
%struct.png_xy = type { i32, i32, i32, i32, i32, i32, i32, i32 }
%struct.png_XYZ = type { i32, i32, i32, i32, i32, i32, i32, i32, i32 }

@.str.3 = private unnamed_addr constant [10 x i8] c"CRC error\00", align 1

; Function Attrs: nounwind uwtable
define hidden i32 @png_crc_error(ptr noalias noundef %0) #0 {
  %2 = alloca i32, align 4
  %3 = alloca ptr, align 8
  %4 = alloca [4 x i8], align 1
  %5 = alloca i32, align 4
  %6 = alloca i32, align 4
  store ptr %0, ptr %3, align 8
  store i32 1, ptr %6, align 4
  %7 = load ptr, ptr %3, align 8
  %8 = getelementptr inbounds %struct.png_struct_def, ptr %7, i32 0, i32 26
  %9 = load i32, ptr %8, align 8
  %10 = lshr i32 %9, 29
  %11 = and i32 1, %10
  %12 = icmp ne i32 %11, 0
  br i1 %12, label %13, label %21

13:                                               ; preds = %1
  %14 = load ptr, ptr %3, align 8
  %15 = getelementptr inbounds %struct.png_struct_def, ptr %14, i32 0, i32 15
  %16 = load i32, ptr %15, align 8
  %17 = and i32 %16, 768
  %18 = icmp eq i32 %17, 768
  br i1 %18, label %19, label %20

19:                                               ; preds = %13
  store i32 0, ptr %6, align 4
  br label %20

20:                                               ; preds = %19, %13
  br label %29

21:                                               ; preds = %1
  %22 = load ptr, ptr %3, align 8
  %23 = getelementptr inbounds %struct.png_struct_def, ptr %22, i32 0, i32 15
  %24 = load i32, ptr %23, align 8
  %25 = and i32 %24, 2048
  %26 = icmp ne i32 %25, 0
  br i1 %26, label %27, label %28

27:                                               ; preds = %21
  store i32 0, ptr %6, align 4
  br label %28

28:                                               ; preds = %27, %21
  br label %29

29:                                               ; preds = %28, %20
  %30 = load ptr, ptr %3, align 8
  %31 = getelementptr inbounds %struct.png_struct_def, ptr %30, i32 0, i32 117
  store i32 129, ptr %31, align 4
  %32 = load ptr, ptr %3, align 8
  %33 = getelementptr inbounds [4 x i8], ptr %4, i64 0, i64 0
  call void @png_read_data(ptr noundef %32, ptr noundef %33, i64 noundef 4)
  %34 = load i32, ptr %6, align 4
  %35 = icmp ne i32 %34, 0
  br i1 %35, label %36, label %64

36:                                               ; preds = %29
  %37 = getelementptr inbounds [4 x i8], ptr %4, i64 0, i64 0
  %38 = load i8, ptr %37, align 1
  %39 = zext i8 %38 to i32
  %40 = shl i32 %39, 24
  %41 = getelementptr inbounds [4 x i8], ptr %4, i64 0, i64 0
  %42 = getelementptr inbounds i8, ptr %41, i64 1
  %43 = load i8, ptr %42, align 1
  %44 = zext i8 %43 to i32
  %45 = shl i32 %44, 16
  %46 = add i32 %40, %45
  %47 = getelementptr inbounds [4 x i8], ptr %4, i64 0, i64 0
  %48 = getelementptr inbounds i8, ptr %47, i64 2
  %49 = load i8, ptr %48, align 1
  %50 = zext i8 %49 to i32
  %51 = shl i32 %50, 8
  %52 = add i32 %46, %51
  %53 = getelementptr inbounds [4 x i8], ptr %4, i64 0, i64 0
  %54 = getelementptr inbounds i8, ptr %53, i64 3
  %55 = load i8, ptr %54, align 1
  %56 = zext i8 %55 to i32
  %57 = add i32 %52, %56
  store i32 %57, ptr %5, align 4
  %58 = load i32, ptr %5, align 4
  %59 = load ptr, ptr %3, align 8
  %60 = getelementptr inbounds %struct.png_struct_def, ptr %59, i32 0, i32 31
  %61 = load i32, ptr %60, align 4
  %62 = icmp ne i32 %58, %61
  %63 = zext i1 %62 to i32
  store i32 %63, ptr %2, align 4
  br label %65

64:                                               ; preds = %29
  store i32 0, ptr %2, align 4
  br label %65

65:                                               ; preds = %64, %36
  %66 = load i32, ptr %2, align 4
  ret i32 %66
}

; Function Attrs: nounwind uwtable
define hidden void @png_crc_read(ptr noalias noundef %0, ptr noundef %1, i32 noundef %2) #0 {
  %4 = alloca ptr, align 8
  %5 = alloca ptr, align 8
  %6 = alloca i32, align 4
  store ptr %0, ptr %4, align 8
  store ptr %1, ptr %5, align 8
  store i32 %2, ptr %6, align 4
  %7 = load ptr, ptr %4, align 8
  %8 = icmp eq ptr %7, null
  br i1 %8, label %9, label %10

9:                                                ; preds = %3
  br label %19

10:                                               ; preds = %3
  %11 = load ptr, ptr %4, align 8
  %12 = load ptr, ptr %5, align 8
  %13 = load i32, ptr %6, align 4
  %14 = zext i32 %13 to i64
  call void @png_read_data(ptr noundef %11, ptr noundef %12, i64 noundef %14)
  %15 = load ptr, ptr %4, align 8
  %16 = load ptr, ptr %5, align 8
  %17 = load i32, ptr %6, align 4
  %18 = zext i32 %17 to i64
  call void @png_calculate_crc(ptr noundef %15, ptr noundef %16, i64 noundef %18)
  br label %19

19:                                               ; preds = %10, %9
  ret void
}

; Function Attrs: nounwind uwtable
define hidden i32 @png_crc_finish(ptr noalias noundef %0, i32 noundef %1) #0 {
  %3 = alloca i32, align 4
  %4 = alloca ptr, align 8
  %5 = alloca i32, align 4
  %6 = alloca i32, align 4
  %7 = alloca [1024 x i8], align 16
  store ptr %0, ptr %4, align 8
  store i32 %1, ptr %5, align 4
  br label %8

8:                                                ; preds = %17, %2
  %9 = load i32, ptr %5, align 4
  %10 = icmp ugt i32 %9, 0
  br i1 %10, label %11, label %24

11:                                               ; preds = %8
  store i32 1024, ptr %6, align 4
  %12 = load i32, ptr %6, align 4
  %13 = load i32, ptr %5, align 4
  %14 = icmp ugt i32 %12, %13
  br i1 %14, label %15, label %17

15:                                               ; preds = %11
  %16 = load i32, ptr %5, align 4
  store i32 %16, ptr %6, align 4
  br label %17

17:                                               ; preds = %15, %11
  %18 = load i32, ptr %6, align 4
  %19 = load i32, ptr %5, align 4
  %20 = sub i32 %19, %18
  store i32 %20, ptr %5, align 4
  %21 = load ptr, ptr %4, align 8
  %22 = getelementptr inbounds [1024 x i8], ptr %7, i64 0, i64 0
  %23 = load i32, ptr %6, align 4
  call void @png_crc_read(ptr noundef %21, ptr noundef %22, i32 noundef %23)
  br label %8, !llvm.loop !8

24:                                               ; preds = %8
  %25 = load ptr, ptr %4, align 8
  %26 = call i32 @png_crc_error(ptr noundef %25)
  %27 = icmp ne i32 %26, 0
  br i1 %27, label %28, label %52

28:                                               ; preds = %24
  %29 = load ptr, ptr %4, align 8
  %30 = getelementptr inbounds %struct.png_struct_def, ptr %29, i32 0, i32 26
  %31 = load i32, ptr %30, align 8
  %32 = lshr i32 %31, 29
  %33 = and i32 1, %32
  %34 = icmp ne i32 %33, 0
  br i1 %34, label %35, label %41

35:                                               ; preds = %28
  %36 = load ptr, ptr %4, align 8
  %37 = getelementptr inbounds %struct.png_struct_def, ptr %36, i32 0, i32 15
  %38 = load i32, ptr %37, align 8
  %39 = and i32 %38, 512
  %40 = icmp eq i32 %39, 0
  br i1 %40, label %47, label %49

41:                                               ; preds = %28
  %42 = load ptr, ptr %4, align 8
  %43 = getelementptr inbounds %struct.png_struct_def, ptr %42, i32 0, i32 15
  %44 = load i32, ptr %43, align 8
  %45 = and i32 %44, 1024
  %46 = icmp ne i32 %45, 0
  br i1 %46, label %47, label %49

47:                                               ; preds = %41, %35
  %48 = load ptr, ptr %4, align 8
  call void @png_chunk_warning(ptr noundef %48, ptr noundef @.str.3)
  br label %51

49:                                               ; preds = %41, %35
  %50 = load ptr, ptr %4, align 8
  call void @png_chunk_error(ptr noundef %50, ptr noundef @.str.3) #6
  unreachable

51:                                               ; preds = %47
  store i32 1, ptr %3, align 4
  br label %53

52:                                               ; preds = %24
  store i32 0, ptr %3, align 4
  br label %53

53:                                               ; preds = %52, %51
  %54 = load i32, ptr %3, align 4
  ret i32 %54
}