; Function Attrs: nounwind uwtable
define hidden range(i32 0, 2) i32 @png_crc_finish(ptr noalias noundef %0, i32 noundef %1) local_unnamed_addr #0 {
  %3 = alloca [4 x i8], align 1
  %4 = alloca [1024 x i8], align 16
  %.not22 = icmp eq i32 %1, 0
  %5 = icmp eq ptr %0, null
  %or.cond = or i1 %.not22, %5
  br i1 %or.cond, label %._crit_edge, label %png_crc_read.exit

png_crc_read.exit:                                ; preds = %2, %png_crc_read.exit
  %.01423 = phi i32 [ %6, %png_crc_read.exit ], [ %1, %2 ]
  %spec.select = call i32 @llvm.umin.i32(i32 %.01423, i32 1024)
  %6 = sub i32 %.01423, %spec.select
  %7 = zext nneg i32 %spec.select to i64
  call void @png_read_data(ptr noundef nonnull %0, ptr noundef nonnull %4, i64 noundef %7) #12
  call void @png_calculate_crc(ptr noundef nonnull %0, ptr noundef nonnull %4, i64 noundef %7) #12
  %.not = icmp eq i32 %6, 0
  br i1 %.not, label %._crit_edge, label %png_crc_read.exit, !llvm.loop !14

._crit_edge:                                      ; preds = %png_crc_read.exit, %2
  call void @llvm.experimental.noalias.scope.decl(metadata !15)
  call void @llvm.lifetime.start.p0(i64 4, ptr nonnull %3)
  %8 = getelementptr inbounds i8, ptr %0, i64 456
  %9 = load i32, ptr %8, align 8, !alias.scope !15
  %10 = and i32 %9, 536870912
  %.not.i = icmp eq i32 %10, 0
  %11 = getelementptr inbounds i8, ptr %0, i64 296
  %12 = load i32, ptr %11, align 8, !alias.scope !15
  %13 = getelementptr inbounds i8, ptr %0, i64 1028
  store i32 129, ptr %13, align 4, !alias.scope !15
  call void @png_read_data(ptr noundef nonnull %0, ptr noundef nonnull %3, i64 noundef 4) #12
  br i1 %.not.i, label %17, label %14

14:                                               ; preds = %._crit_edge
  %15 = and i32 %12, 768
  %16 = icmp eq i32 %15, 768
  br i1 %16, label %png_crc_error.exit.thread, label %png_crc_error.exit

17:                                               ; preds = %._crit_edge
  %18 = and i32 %12, 2048
  %.not9.not.i = icmp eq i32 %18, 0
  br i1 %.not9.not.i, label %png_crc_error.exit, label %png_crc_error.exit.thread

png_crc_error.exit.thread:                        ; preds = %17, %14
  call void @llvm.lifetime.end.p0(i64 4, ptr nonnull %3)
  br label %49

png_crc_error.exit:                               ; preds = %14, %17
  %19 = load i8, ptr %3, align 1, !noalias !15
  %20 = zext i8 %19 to i32
  %21 = shl nuw i32 %20, 24
  %22 = getelementptr inbounds i8, ptr %3, i64 1
  %23 = load i8, ptr %22, align 1, !noalias !15
  %24 = zext i8 %23 to i32
  %25 = shl nuw nsw i32 %24, 16
  %26 = or disjoint i32 %25, %21
  %27 = getelementptr inbounds i8, ptr %3, i64 2
  %28 = load i8, ptr %27, align 1, !noalias !15
  %29 = zext i8 %28 to i32
  %30 = shl nuw nsw i32 %29, 8
  %31 = or disjoint i32 %26, %30
  %32 = getelementptr inbounds i8, ptr %3, i64 3
  %33 = load i8, ptr %32, align 1, !noalias !15
  %34 = zext i8 %33 to i32
  %35 = or disjoint i32 %31, %34
  %36 = getelementptr inbounds i8, ptr %0, i64 492
  %37 = load i32, ptr %36, align 4, !alias.scope !15
  %.not21 = icmp eq i32 %35, %37
  call void @llvm.lifetime.end.p0(i64 4, ptr nonnull %3)
  br i1 %.not21, label %49, label %38

38:                                               ; preds = %png_crc_error.exit
  %39 = load i32, ptr %8, align 8
  %40 = and i32 %39, 536870912
  %.not17 = icmp eq i32 %40, 0
  %41 = load i32, ptr %11, align 8
  br i1 %.not17, label %45, label %42

42:                                               ; preds = %38
  %43 = and i32 %41, 512
  %44 = icmp eq i32 %43, 0
  br i1 %44, label %47, label %48

45:                                               ; preds = %38
  %46 = and i32 %41, 1024
  %.not18 = icmp eq i32 %46, 0
  br i1 %.not18, label %48, label %47

47:                                               ; preds = %45, %42
  call void @png_chunk_warning(ptr noundef nonnull %0, ptr noundef nonnull @.str.3) #12
  br label %49

48:                                               ; preds = %45, %42
  call void @png_chunk_error(ptr noundef nonnull %0, ptr noundef nonnull @.str.3) #11
  unreachable

49:                                               ; preds = %png_crc_error.exit.thread, %png_crc_error.exit, %47
  %.015 = phi i32 [ 1, %47 ], [ 0, %png_crc_error.exit ], [ 0, %png_crc_error.exit.thread ]
  ret i32 %.015
}